target datalayout = "e-m:e-p270:32:32-p271:32:32-p272:64:64-i64:64-i128:128-f80:128-n8:16:32:64-S128"
target triple = "x86_64-pc-linux-gnu"

; Function Attrs: nounwind uwtable
define dso_local void @ReleaseSysCache(ptr noundef %0) #0 {
  %2 = alloca ptr, align 8
  store ptr %0, ptr %2, align 8
  %3 = load ptr, ptr %2, align 8
  call void @ReleaseCatCache(ptr noundef %3)
  ret void
}

; Function Attrs: nounwind uwtable
define dso_local ptr @SearchSysCacheLockedCopy1(i32 noundef %0, i64 noundef %1) #0 {
  %3 = alloca ptr, align 8
  %4 = alloca i32, align 4
  %5 = alloca i64, align 8
  %6 = alloca ptr, align 8
  %7 = alloca ptr, align 8
  %8 = alloca i32, align 4
  store i32 %0, ptr %4, align 4
  store i64 %1, ptr %5, align 8
  call void @llvm.lifetime.start.p0(i64 8, ptr %6) #6
  call void @llvm.lifetime.start.p0(i64 8, ptr %7) #6
  %9 = load i32, ptr %4, align 4
  %10 = load i64, ptr %5, align 8
  %11 = call ptr @SearchSysCacheLocked1(i32 noundef %9, i64 noundef %10)
  store ptr %11, ptr %6, align 8
  %12 = load ptr, ptr %6, align 8
  %13 = icmp ne ptr %12, null
  br i1 %13, label %16, label %14

14:                                               ; preds = %2
  %15 = load ptr, ptr %6, align 8
  store ptr %15, ptr %3, align 8
  store i32 1, ptr %8, align 4
  br label %21

16:                                               ; preds = %2
  %17 = load ptr, ptr %6, align 8
  %18 = call ptr @heap_copytuple(ptr noundef %17)
  store ptr %18, ptr %7, align 8
  %19 = load ptr, ptr %6, align 8
  call void @ReleaseSysCache(ptr noundef %19)
  %20 = load ptr, ptr %7, align 8
  store ptr %20, ptr %3, align 8
  store i32 1, ptr %8, align 4
  br label %21

21:                                               ; preds = %16, %14
  call void @llvm.lifetime.end.p0(i64 8, ptr %7) #6
  call void @llvm.lifetime.end.p0(i64 8, ptr %6) #6
  %22 = load ptr, ptr %3, align 8
  ret ptr %22
}