; Function Attrs: nounwind uwtable
define dso_local ptr @SearchSysCacheLockedCopy1(i32 noundef %0, i64 noundef %1) local_unnamed_addr #0 {
  %3 = tail call ptr @SearchSysCacheLocked1(i32 noundef %0, i64 noundef %1)
  %.not = icmp eq ptr %3, null
  br i1 %.not, label %6, label %4

4:                                                ; preds = %2
  %5 = tail call ptr @heap_copytuple(ptr noundef nonnull %3) #11
  tail call void @ReleaseCatCache(ptr noundef nonnull %3) #11
  br label %6

6:                                                ; preds = %2, %4
  %.0 = phi ptr [ %5, %4 ], [ null, %2 ]
  ret ptr %.0
}